(lp0
cnumpy.core.multiarray
_reconstruct
p1
(cnumpy
ndarray
p2
(I0
tp3
S'b'
p4
tp5
Rp6
(I1
(I3
tp7
cnumpy
dtype
p8
(S'f8'
p9
I0
I1
tp10
Rp11
(I3
S'<'
p12
NNNI-1
I-1
I0
tp13
bI00
S'\x00\x00\x00\x00\x00\x00\x14@\x00\x00\x00\x00\x00\x00$@\x00\x00\x00\x00\x00\x00.@'
p14
tp15
bag1
(g2
(I0
tp16
g4
tp17
Rp18
(I1
(I3
tp19
g11
I00
S'H\xaf\xbc\x9a\xf2\xd7z>\x8d\xed\xb5\xa0\xf7\xc6\xb0>\xf1h\xe3\x88\xb5\xf8\xe4>'
p20
tp21
bag1
(g2
(I0
tp22
g4
tp23
Rp24
(I1
(I3
tp25
g11
I00
S'ffffff\xf6?\x00\x00\x00\x00\x00\x00\xf8?\x9a\x99\x99\x99\x99\x99\xf9?'
p26
tp27
ba(dp28
S'dist'
p29
(lp30
S'Distance'
p31
aS'pc'
p32
aS'144'
p33
asS'maxsca'
p34
(lp35
S'Maximum Number of Scatterings'
p36
aS''
p37
aS'3'
p38
asS'pixpad'
p39
(lp40
S'Image Padding'
p41
aS'percent'
p42
aS'10.0'
p43
asS'ntot'
p44
(lp45
S'Number of Photons'
p46
aS'/1e6'
p47
aS'5'
p48
asS'irange'
p49
(lp50
S'Range for User Defined Viewing Angle'
p51
aS'degrees'
p52
aS'10'
p53
asS'logfile'
p54
(lp55
S'Log file'
p56
ag37
aS'log.txt'
p57
asS'resamp'
p58
(lp59
S'Pixel Sampling'
p60
ag37
aS'2'
p61
asS'pixscale'
p62
(lp63
S'Pixel Scale'
p64
aS'arcsec'
p65
aS'0.00948'
p66
asS'dpath'
p67
(lp68
S'Step Size for Photon Path'
p69
aS'AU'
p70
aS'0.5'
p71
asS'igrid'
p72
(lp73
S'Grid'
p74
ag37
acnumpy.core.multiarray
scalar
p75
(g11
S'\x00\x00\x00\x00\x00\xc0V@'
p76
tp77
Rp78
asS'incl'
p79
(lp80
S'User Defined Viewing Angle'
p81
ag52
aS'35'
p82
asa(dp83
S'dust_model'
p84
(lp85
S'Dust Model'
p86
ag37
aS'KMH94, R_V=3.1'
p87
asS'kappa_ext'
p88
(lp89
V\u03ba_ext
p90
aS'/g'
p91
aS'0'
p92
asS'wave'
p93
(lp94
S'Wavelength'
p95
aS'microns'
p96
aS'1.65'
p97
asa(dp98
S'maxr'
p99
(lp100
S'Maximum Radius'
p101
ag70
aS'100'
p102
asS'tmax'
p103
(lp104
S'T Max'
p105
ag37
aS'-1'
p106
asS'disk_model'
p107
(lp108
S'Disk Model'
p109
ag37
aS'User Specified'
p110
asS'tau_critical'
p111
(lp112
S'Tau Critical'
p113
ag37
aS'0.001'
p114
asS'r'
p115
(lp116
S'Stellar radius'
p117
aS'Rsol'
p118
aS'1.2'
p119
asS'minr'
p120
(lp121
S'Minimum Radius'
p122
ag70
ag48
asa(lp123
F12.9
aF31.4
aF41.3
aF49.4
aF56.5
aF63.2
aF69.5
aF75.5
aF81.4
aF87.1
aF35.0
aa(dp124
S'rho_val'
p125
g37
sS'tau_val'
p126
g37
sS'ang_val'
p127
g37
sS'fixrho'
p128
I1
sS'h0_val'
p129
S'100'
p130
sS'mass_val'
p131
g37
sS'fixh'
p132
I2
sa(dp133
S'h0'
p134
(lp135
S'Disk Scale Height H'
p136
ag48
aS'15'
p137
ag38
aI0
asS'beta'
p138
(lp139
S'Disk Flaring Power'
p140
aS'1.4'
p141
aS'1.6'
p142
ag38
aI0
asS'rho'
p143
(lp144
VInitial Density +u03c1(g cm-3)
p145
aS'1e-07'
p146
aS'1e-05'
p147
ag38
aI1
asa(lp148
a.